; Function Attrs: mustprogress nounwind uwtable
define hidden void @_ZN7Imf_3_29InputFile4DataD2Ev(ptr noundef nonnull align 8 dereferenceable(257) %this) unnamed_addr #4 align 2 personality ptr @__gxx_personality_v0 {
entry:
  %tFile = getelementptr inbounds i8, ptr %this, i64 104
  %0 = load ptr, ptr %tFile, align 8
  %tobool.not = icmp eq ptr %0, null
  br i1 %tobool.not, label %if.end, label %delete.notnull

delete.notnull:                                   ; preds = %entry
  %vtable = load ptr, ptr %0, align 8
  %vfn = getelementptr inbounds i8, ptr %vtable, i64 8
  %1 = load ptr, ptr %vfn, align 8
  tail call void %1(ptr noundef nonnull align 8 dereferenceable(16) %0) #20
  br label %if.end

if.end:                                           ; preds = %delete.notnull, %entry
  %sFile = getelementptr inbounds i8, ptr %this, i64 112
  %2 = load ptr, ptr %sFile, align 8
  %tobool3.not = icmp eq ptr %2, null
  br i1 %tobool3.not, label %if.end11, label %delete.notnull7

delete.notnull7:                                  ; preds = %if.end
  %vtable8 = load ptr, ptr %2, align 8
  %vfn9 = getelementptr inbounds i8, ptr %vtable8, i64 8
  %3 = load ptr, ptr %vfn9, align 8
  tail call void %3(ptr noundef nonnull align 8 dereferenceable(24) %2) #20
  br label %if.end11

if.end11:                                         ; preds = %delete.notnull7, %if.end
  %dsFile = getelementptr inbounds i8, ptr %this, i64 120
  %4 = load ptr, ptr %dsFile, align 8
  %tobool12.not = icmp eq ptr %4, null
  br i1 %tobool12.not, label %if.end20, label %delete.notnull16

delete.notnull16:                                 ; preds = %if.end11
  %vtable17 = load ptr, ptr %4, align 8
  %vfn18 = getelementptr inbounds i8, ptr %vtable17, i64 8
  %5 = load ptr, ptr %vfn18, align 8
  tail call void %5(ptr noundef nonnull align 8 dereferenceable(16) %4) #20
  br label %if.end20

if.end20:                                         ; preds = %delete.notnull16, %if.end11
  %compositor = getelementptr inbounds i8, ptr %this, i64 200
  %6 = load ptr, ptr %compositor, align 8
  %tobool21.not = icmp eq ptr %6, null
  br i1 %tobool21.not, label %if.end29, label %delete.notnull25

delete.notnull25:                                 ; preds = %if.end20
  %vtable26 = load ptr, ptr %6, align 8
  %vfn27 = getelementptr inbounds i8, ptr %vtable26, i64 8
  %7 = load ptr, ptr %vfn27, align 8
  tail call void %7(ptr noundef nonnull align 8 dereferenceable(16) %6) #20
  br label %if.end29

if.end29:                                         ; preds = %delete.notnull25, %if.end20
  invoke void @_ZN7Imf_3_29InputFile4Data18deleteCachedBufferEv(ptr noundef nonnull align 8 dereferenceable(257) %this)
          to label %invoke.cont unwind label %terminate.lpad

invoke.cont:                                      ; preds = %if.end29
  %multiPartBackwardSupport = getelementptr inbounds i8, ptr %this, i64 232
  %8 = load i8, ptr %multiPartBackwardSupport, align 8
  %9 = and i8 %8, 1
  %tobool30.not = icmp eq i8 %9, 0
  br i1 %tobool30.not, label %if.end39, label %land.lhs.true

land.lhs.true:                                    ; preds = %invoke.cont
  %multiPartFile = getelementptr inbounds i8, ptr %this, i64 240
  %10 = load ptr, ptr %multiPartFile, align 8
  %tobool31.not = icmp eq ptr %10, null
  br i1 %tobool31.not, label %if.end39, label %delete.notnull35

delete.notnull35:                                 ; preds = %land.lhs.true
  %vtable36 = load ptr, ptr %10, align 8
  %vfn37 = getelementptr inbounds i8, ptr %vtable36, i64 8
  %11 = load ptr, ptr %vfn37, align 8
  tail call void %11(ptr noundef nonnull align 8 dereferenceable(16) %10) #20
  br label %if.end39

if.end39:                                         ; preds = %delete.notnull35, %land.lhs.true, %invoke.cont
  %tFileBuffer = getelementptr inbounds i8, ptr %this, i64 144
  %_M_parent.i.i.i.i.i = getelementptr inbounds i8, ptr %this, i64 160
  %12 = load ptr, ptr %_M_parent.i.i.i.i.i, align 8
  invoke void @_ZNSt8_Rb_treeIN7Imf_3_24NameESt4pairIKS1_NS0_5SliceEESt10_Select1stIS5_ESt4lessIS1_ESaIS5_EE8_M_eraseEPSt13_Rb_tree_nodeIS5_E(ptr noundef nonnull align 8 dereferenceable(48) %tFileBuffer, ptr noundef %12)
          to label %_ZN7Imf_3_211FrameBufferD2Ev.exit unwind label %terminate.lpad.i.i.i

terminate.lpad.i.i.i:                             ; preds = %if.end39
  %13 = landingpad { ptr, i32 }
          catch ptr null
  %14 = extractvalue { ptr, i32 } %13, 0
  tail call void @__clang_call_terminate(ptr %14) #21
  unreachable

_ZN7Imf_3_211FrameBufferD2Ev.exit:                ; preds = %if.end39
  %header = getelementptr inbounds i8, ptr %this, i64 40
  tail call void @_ZN7Imf_3_26HeaderD1Ev(ptr noundef nonnull align 8 dereferenceable(49) %header) #20
  ret void

terminate.lpad:                                   ; preds = %if.end29
  %15 = landingpad { ptr, i32 }
          catch ptr null
  %16 = extractvalue { ptr, i32 } %15, 0
  tail call void @__clang_call_terminate(ptr %16) #21
  unreachable
}